target datalayout = "e-m:e-p270:32:32-p271:32:32-p272:64:64-i64:64-i128:128-f80:128-n8:16:32:64-S128"
target triple = "x86_64-pc-linux-gnu"

%struct.cli_matched_type = type { ptr, i64, i32, i16 }
%struct.cli_ctx_tag = type { ptr, ptr, ptr, ptr, ptr, ptr, ptr, i64, ptr, i32, i32, ptr, i32, i32, ptr, [16 x i8], ptr, ptr, ptr, ptr, ptr, ptr, %struct.timeval, i8, i8 }
%struct.timeval = type { i64, i64 }
%struct.cl_engine = type { i32, i32, i32, [2 x i32], i32, i32, i32, ptr, i32, i64, i32, i32, i64, i64, i32, i32, i32, i32, ptr, ptr, ptr, ptr, ptr, ptr, ptr, ptr, ptr, ptr, ptr, ptr, ptr, ptr, ptr, ptr, ptr, ptr, ptr, i64, ptr, %struct.crtmgr, ptr, ptr, ptr, ptr, ptr, ptr, ptr, ptr, ptr, ptr, ptr, ptr, ptr, ptr, ptr, ptr, ptr, %struct.cli_all_bc, [7 x ptr], [7 x i32], i32, i32, i32, i32, i64, i64, i64, i64, i64, ptr, ptr, ptr, ptr, ptr, ptr, ptr, ptr, ptr, i32, i32, i32, i64, i64, i64, ptr }
%struct.crtmgr = type { ptr, i32 }
%struct.cli_all_bc = type { ptr, i32, ptr, %struct.cli_environment, i32 }
%struct.cli_environment = type { i32, i32, i32, i32, i32, i32, i32, [65 x i8], [65 x i8], [65 x i8], [65 x i8], [65 x i8], [65 x i8], [65 x i8], i8, i8, i8, i8, i8, i8, i8, i8, i8 }

@.str.88 = private unnamed_addr constant [57 x i8] c"cli_ac_addtype: Can't allocate memory for new type node\0A\00", align 1

; Function Attrs: inlinehint nounwind uwtable
define internal i32 @ac_addtype(ptr noundef %0, i32 noundef %1, i64 noundef %2, ptr noundef %3) #12 {
  %5 = alloca i32, align 4
  %6 = alloca ptr, align 8
  %7 = alloca i32, align 4
  %8 = alloca i64, align 8
  %9 = alloca ptr, align 8
  %10 = alloca ptr, align 8
  %11 = alloca ptr, align 8
  %12 = alloca i32, align 4
  store ptr %0, ptr %6, align 8, !tbaa !145
  store i32 %1, ptr %7, align 4, !tbaa !49
  store i64 %2, ptr %8, align 8, !tbaa !87
  store ptr %3, ptr %9, align 8, !tbaa !147
  call void @llvm.lifetime.start.p0(i64 8, ptr %10) #16
  call void @llvm.lifetime.start.p0(i64 8, ptr %11) #16
  %13 = load i32, ptr %7, align 4, !tbaa !49
  %14 = icmp eq i32 %13, 563
  br i1 %14, label %15, label %43

15:                                               ; preds = %4
  %16 = load ptr, ptr %6, align 8, !tbaa !145
  %17 = load ptr, ptr %16, align 8, !tbaa !160
  %18 = icmp ne ptr %17, null
  br i1 %18, label %19, label %42

19:                                               ; preds = %15
  %20 = load ptr, ptr %9, align 8, !tbaa !147
  %21 = icmp ne ptr %20, null
  br i1 %21, label %22, label %42

22:                                               ; preds = %19
  %23 = load ptr, ptr %9, align 8, !tbaa !147
  %24 = getelementptr inbounds nuw %struct.cli_ctx_tag, ptr %23, i32 0, i32 6
  %25 = load ptr, ptr %24, align 8, !tbaa !187
  %26 = getelementptr inbounds nuw %struct.cl_engine, ptr %25, i32 0, i32 15
  %27 = load i32, ptr %26, align 4, !tbaa !188
  %28 = icmp ne i32 %27, 0
  br i1 %28, label %29, label %42

29:                                               ; preds = %22
  %30 = load ptr, ptr %6, align 8, !tbaa !145
  %31 = load ptr, ptr %30, align 8, !tbaa !160
  %32 = getelementptr inbounds nuw %struct.cli_matched_type, ptr %31, i32 0, i32 3
  %33 = load i16, ptr %32, align 4, !tbaa !162
  %34 = zext i16 %33 to i32
  %35 = load ptr, ptr %9, align 8, !tbaa !147
  %36 = getelementptr inbounds nuw %struct.cli_ctx_tag, ptr %35, i32 0, i32 6
  %37 = load ptr, ptr %36, align 8, !tbaa !187
  %38 = getelementptr inbounds nuw %struct.cl_engine, ptr %37, i32 0, i32 15
  %39 = load i32, ptr %38, align 4, !tbaa !188
  %40 = icmp ugt i32 %34, %39
  br i1 %40, label %41, label %42

41:                                               ; preds = %29
  store i32 0, ptr %5, align 4
  store i32 1, ptr %12, align 4
  br label %99

42:                                               ; preds = %29, %22, %19, %15
  br label %56

43:                                               ; preds = %4
  %44 = load ptr, ptr %6, align 8, !tbaa !145
  %45 = load ptr, ptr %44, align 8, !tbaa !160
  %46 = icmp ne ptr %45, null
  br i1 %46, label %47, label %55

47:                                               ; preds = %43
  %48 = load ptr, ptr %6, align 8, !tbaa !145
  %49 = load ptr, ptr %48, align 8, !tbaa !160
  %50 = getelementptr inbounds nuw %struct.cli_matched_type, ptr %49, i32 0, i32 3
  %51 = load i16, ptr %50, align 4, !tbaa !162
  %52 = zext i16 %51 to i32
  %53 = icmp sge i32 %52, 10
  br i1 %53, label %54, label %55

54:                                               ; preds = %47
  store i32 0, ptr %5, align 4
  store i32 1, ptr %12, align 4
  br label %99

55:                                               ; preds = %47, %43
  br label %56

56:                                               ; preds = %55, %42
  %57 = call noalias ptr @calloc(i64 noundef 1, i64 noundef 24) #21
  store ptr %57, ptr %10, align 8, !tbaa !160
  %58 = icmp ne ptr %57, null
  br i1 %58, label %60, label %59

59:                                               ; preds = %56
  call void (ptr, ...) @cli_errmsg(ptr noundef @.str.88)
  store i32 20, ptr %5, align 4
  store i32 1, ptr %12, align 4
  br label %99

60:                                               ; preds = %56
  %61 = load i32, ptr %7, align 4, !tbaa !49
  %62 = load ptr, ptr %10, align 8, !tbaa !160
  %63 = getelementptr inbounds nuw %struct.cli_matched_type, ptr %62, i32 0, i32 2
  store i32 %61, ptr %63, align 8, !tbaa !206
  %64 = load i64, ptr %8, align 8, !tbaa !87
  %65 = load ptr, ptr %10, align 8, !tbaa !160
  %66 = getelementptr inbounds nuw %struct.cli_matched_type, ptr %65, i32 0, i32 1
  store i64 %64, ptr %66, align 8, !tbaa !207
  %67 = load ptr, ptr %6, align 8, !tbaa !145
  %68 = load ptr, ptr %67, align 8, !tbaa !160
  store ptr %68, ptr %11, align 8, !tbaa !160
  br label %69

69:                                               ; preds = %79, %60
  %70 = load ptr, ptr %11, align 8, !tbaa !160
  %71 = icmp ne ptr %70, null
  br i1 %71, label %72, label %77

72:                                               ; preds = %69
  %73 = load ptr, ptr %11, align 8, !tbaa !160
  %74 = getelementptr inbounds nuw %struct.cli_matched_type, ptr %73, i32 0, i32 0
  %75 = load ptr, ptr %74, align 8, !tbaa !208
  %76 = icmp ne ptr %75, null
  br label %77

77:                                               ; preds = %72, %69
  %78 = phi i1 [ false, %69 ], [ %76, %72 ]
  br i1 %78, label %79, label %83

79:                                               ; preds = %77
  %80 = load ptr, ptr %11, align 8, !tbaa !160
  %81 = getelementptr inbounds nuw %struct.cli_matched_type, ptr %80, i32 0, i32 0
  %82 = load ptr, ptr %81, align 8, !tbaa !208
  store ptr %82, ptr %11, align 8, !tbaa !160
  br label %69

83:                                               ; preds = %77
  %84 = load ptr, ptr %11, align 8, !tbaa !160
  %85 = icmp ne ptr %84, null
  br i1 %85, label %86, label %90

86:                                               ; preds = %83
  %87 = load ptr, ptr %10, align 8, !tbaa !160
  %88 = load ptr, ptr %11, align 8, !tbaa !160
  %89 = getelementptr inbounds nuw %struct.cli_matched_type, ptr %88, i32 0, i32 0
  store ptr %87, ptr %89, align 8, !tbaa !208
  br label %93

90:                                               ; preds = %83
  %91 = load ptr, ptr %10, align 8, !tbaa !160
  %92 = load ptr, ptr %6, align 8, !tbaa !145
  store ptr %91, ptr %92, align 8, !tbaa !160
  br label %93

93:                                               ; preds = %90, %86
  %94 = load ptr, ptr %6, align 8, !tbaa !145
  %95 = load ptr, ptr %94, align 8, !tbaa !160
  %96 = getelementptr inbounds nuw %struct.cli_matched_type, ptr %95, i32 0, i32 3
  %97 = load i16, ptr %96, align 4, !tbaa !162
  %98 = add i16 %97, 1
  store i16 %98, ptr %96, align 4, !tbaa !162
  store i32 0, ptr %5, align 4
  store i32 1, ptr %12, align 4
  br label %99

99:                                               ; preds = %93, %59, %54, %41
  call void @llvm.lifetime.end.p0(i64 8, ptr %11) #16
  call void @llvm.lifetime.end.p0(i64 8, ptr %10) #16
  %100 = load i32, ptr %5, align 4
  ret i32 %100
}