; Function Attrs: inlinehint nounwind uwtable
define internal fastcc range(i32 0, 21) i32 @ac_addtype(ptr noundef nonnull captures(none) %0, i32 noundef range(i32 0, 65536) %1, i64 noundef range(i64 0, 4294967296) %2, ptr noundef readonly %3) unnamed_addr #13 {
  %5 = icmp eq i32 %1, 563
  %6 = load ptr, ptr %0, align 8, !tbaa !142
  br i1 %5, label %7, label %20

7:                                                ; preds = %4
  %8 = icmp ne ptr %6, null
  %9 = icmp ne ptr %3, null
  %or.cond = and i1 %9, %8
  br i1 %or.cond, label %10, label %25

10:                                               ; preds = %7
  %11 = getelementptr inbounds nuw i8, ptr %3, i64 48
  %12 = load ptr, ptr %11, align 8, !tbaa !171
  %13 = getelementptr inbounds nuw i8, ptr %12, i64 84
  %14 = load i32, ptr %13, align 4, !tbaa !172
  %.not30 = icmp eq i32 %14, 0
  br i1 %.not30, label %25, label %15

15:                                               ; preds = %10
  %16 = getelementptr inbounds nuw i8, ptr %6, i64 20
  %17 = load i16, ptr %16, align 4, !tbaa !144
  %18 = zext i16 %17 to i32
  %19 = icmp ult i32 %14, %18
  br i1 %19, label %40, label %25

20:                                               ; preds = %4
  %.not = icmp eq ptr %6, null
  br i1 %.not, label %25, label %21

21:                                               ; preds = %20
  %22 = getelementptr inbounds nuw i8, ptr %6, i64 20
  %23 = load i16, ptr %22, align 4, !tbaa !144
  %24 = icmp ugt i16 %23, 9
  br i1 %24, label %40, label %25

25:                                               ; preds = %20, %21, %7, %10, %15
  %26 = phi ptr [ null, %20 ], [ %6, %21 ], [ %6, %7 ], [ %6, %10 ], [ %6, %15 ]
  %27 = tail call noalias dereferenceable_or_null(24) ptr @calloc(i64 noundef 1, i64 noundef 24) #23
  %.not31 = icmp eq ptr %27, null
  br i1 %.not31, label %28, label %29

28:                                               ; preds = %25
  tail call void (ptr, ...) @cli_errmsg(ptr noundef nonnull @.str.88) #19
  br label %40

29:                                               ; preds = %25
  %30 = getelementptr inbounds nuw i8, ptr %27, i64 16
  store i32 %1, ptr %30, align 8, !tbaa !190
  %31 = getelementptr inbounds nuw i8, ptr %27, i64 8
  store i64 %2, ptr %31, align 8, !tbaa !191
  br label %32

32:                                               ; preds = %33, %29
  %.0 = phi ptr [ %26, %29 ], [ %34, %33 ]
  %.not32 = icmp eq ptr %.0, null
  br i1 %.not32, label %.critedge34, label %33

33:                                               ; preds = %32
  %34 = load ptr, ptr %.0, align 8, !tbaa !192
  %.not33 = icmp eq ptr %34, null
  br i1 %.not33, label %.critedge, label %32

.critedge:                                        ; preds = %33
  store ptr %27, ptr %.0, align 8, !tbaa !192
  %.pre = load ptr, ptr %0, align 8, !tbaa !142
  br label %35

.critedge34:                                      ; preds = %32
  store ptr %27, ptr %0, align 8, !tbaa !142
  br label %35

35:                                               ; preds = %.critedge34, %.critedge
  %36 = phi ptr [ %27, %.critedge34 ], [ %.pre, %.critedge ]
  %37 = getelementptr inbounds nuw i8, ptr %36, i64 20
  %38 = load i16, ptr %37, align 4, !tbaa !144
  %39 = add i16 %38, 1
  store i16 %39, ptr %37, align 4, !tbaa !144
  br label %40

40:                                               ; preds = %21, %15, %35, %28
  %.023 = phi i32 [ 0, %35 ], [ 20, %28 ], [ 0, %15 ], [ 0, %21 ]
  ret i32 %.023
}